; Function Attrs: nounwind uwtable
define internal noundef i32 @mxf_read_pulldown_component(ptr noundef %0, ptr noundef %1, i32 noundef %2, i32 %3, ptr readnone captures(none) %4, i64 %5) #1 {
  %cond = icmp eq i32 %2, 3329
  br i1 %cond, label %7, label %10

7:                                                ; preds = %6
  %8 = getelementptr inbounds nuw i8, ptr %0, i64 24
  %9 = tail call i32 @avio_read(ptr noundef %1, ptr noundef nonnull %8, i32 noundef 16) #15
  br label %10

10:                                               ; preds = %6, %7
  ret i32 0
}